target datalayout = "e-m:e-p270:32:32-p271:32:32-p272:64:64-i64:64-i128:128-f80:128-n8:16:32:64-S128"
target triple = "x86_64-pc-linux-gnu"

%struct.sfparse_parser = type { ptr, ptr, i32 }
%struct.sfparse_value = type { i32, i32, %union.anon }
%union.anon = type { %struct.sfparse_decimal }
%struct.sfparse_decimal = type { i64, i64 }

@.str = private unnamed_addr constant [2 x i8] c"0\00", align 1
@.str.1 = private unnamed_addr constant [107 x i8] c"generated/home/dtcxzyw/WorkSpace/Projects/compilers/llvm-opt-benchmark/bench/nghttp2/nghttp2/lib/sfparse.c\00", align 1
@__PRETTY_FUNCTION__.sfparse_parser_list = private unnamed_addr constant [59 x i8] c"int sfparse_parser_list(sfparse_parser *, sfparse_value *)\00", align 1
@__PRETTY_FUNCTION__.parser_skip_params = private unnamed_addr constant [41 x i8] c"int parser_skip_params(sfparse_parser *)\00", align 1
@__PRETTY_FUNCTION__.parser_skip_inner_list = private unnamed_addr constant [45 x i8] c"int parser_skip_inner_list(sfparse_parser *)\00", align 1

; Function Attrs: nounwind uwtable
define internal i32 @is_ws(i8 noundef zeroext %0) #0 {
  %2 = alloca i32, align 4
  %3 = alloca i8, align 1
  store i8 %0, ptr %3, align 1, !tbaa !18
  %4 = load i8, ptr %3, align 1, !tbaa !18
  %5 = zext i8 %4 to i32
  switch i32 %5, label %7 [
    i32 32, label %6
    i32 9, label %6
  ]

6:                                                ; preds = %1, %1
  store i32 1, ptr %2, align 4
  br label %8

7:                                                ; preds = %1
  store i32 0, ptr %2, align 4
  br label %8

8:                                                ; preds = %7, %6
  %9 = load i32, ptr %2, align 4
  ret i32 %9
}

; Function Attrs: nounwind uwtable
define internal void @parser_discard_ows(ptr noundef %0) #0 {
  %2 = alloca ptr, align 8
  store ptr %0, ptr %2, align 8, !tbaa !3
  br label %3

3:                                                ; preds = %17, %1
  %4 = load ptr, ptr %2, align 8, !tbaa !3
  %5 = call i32 @parser_eof(ptr noundef %4)
  %6 = icmp ne i32 %5, 0
  br i1 %6, label %14, label %7

7:                                                ; preds = %3
  %8 = load ptr, ptr %2, align 8, !tbaa !3
  %9 = getelementptr inbounds nuw %struct.sfparse_parser, ptr %8, i32 0, i32 0
  %10 = load ptr, ptr %9, align 8, !tbaa !17
  %11 = load i8, ptr %10, align 1, !tbaa !18
  %12 = call i32 @is_ws(i8 noundef zeroext %11)
  %13 = icmp ne i32 %12, 0
  br label %14

14:                                               ; preds = %7, %3
  %15 = phi i1 [ false, %3 ], [ %13, %7 ]
  br i1 %15, label %16, label %22

16:                                               ; preds = %14
  br label %17

17:                                               ; preds = %16
  %18 = load ptr, ptr %2, align 8, !tbaa !3
  %19 = getelementptr inbounds nuw %struct.sfparse_parser, ptr %18, i32 0, i32 0
  %20 = load ptr, ptr %19, align 8, !tbaa !17
  %21 = getelementptr inbounds nuw i8, ptr %20, i32 1
  store ptr %21, ptr %19, align 8, !tbaa !17
  br label %3, !llvm.loop !46

22:                                               ; preds = %14
  ret void
}

; Function Attrs: nounwind uwtable
define internal i32 @parser_eof(ptr noundef %0) #0 {
  %2 = alloca ptr, align 8
  store ptr %0, ptr %2, align 8, !tbaa !3
  %3 = load ptr, ptr %2, align 8, !tbaa !3
  %4 = getelementptr inbounds nuw %struct.sfparse_parser, ptr %3, i32 0, i32 0
  %5 = load ptr, ptr %4, align 8, !tbaa !17
  %6 = load ptr, ptr %2, align 8, !tbaa !3
  %7 = getelementptr inbounds nuw %struct.sfparse_parser, ptr %6, i32 0, i32 1
  %8 = load ptr, ptr %7, align 8, !tbaa !22
  %9 = icmp eq ptr %5, %8
  %10 = zext i1 %9 to i32
  ret i32 %10
}

; Function Attrs: nounwind uwtable
define internal void @parser_discard_sp(ptr noundef %0) #0 {
  %2 = alloca ptr, align 8
  store ptr %0, ptr %2, align 8, !tbaa !3
  br label %3

3:                                                ; preds = %17, %1
  %4 = load ptr, ptr %2, align 8, !tbaa !3
  %5 = call i32 @parser_eof(ptr noundef %4)
  %6 = icmp ne i32 %5, 0
  br i1 %6, label %14, label %7

7:                                                ; preds = %3
  %8 = load ptr, ptr %2, align 8, !tbaa !3
  %9 = getelementptr inbounds nuw %struct.sfparse_parser, ptr %8, i32 0, i32 0
  %10 = load ptr, ptr %9, align 8, !tbaa !17
  %11 = load i8, ptr %10, align 1, !tbaa !18
  %12 = zext i8 %11 to i32
  %13 = icmp eq i32 %12, 32
  br label %14

14:                                               ; preds = %7, %3
  %15 = phi i1 [ false, %3 ], [ %13, %7 ]
  br i1 %15, label %16, label %22

16:                                               ; preds = %14
  br label %17

17:                                               ; preds = %16
  %18 = load ptr, ptr %2, align 8, !tbaa !3
  %19 = getelementptr inbounds nuw %struct.sfparse_parser, ptr %18, i32 0, i32 0
  %20 = load ptr, ptr %19, align 8, !tbaa !17
  %21 = getelementptr inbounds nuw i8, ptr %20, i32 1
  store ptr %21, ptr %19, align 8, !tbaa !17
  br label %3, !llvm.loop !23

22:                                               ; preds = %14
  ret void
}

; Function Attrs: nounwind uwtable
define internal i32 @parser_next_key_or_item(ptr noundef %0) #0 {
  %2 = alloca i32, align 4
  %3 = alloca ptr, align 8
  store ptr %0, ptr %3, align 8, !tbaa !3
  %4 = load ptr, ptr %3, align 8, !tbaa !3
  call void @parser_discard_ows(ptr noundef %4)
  %5 = load ptr, ptr %3, align 8, !tbaa !3
  %6 = call i32 @parser_eof(ptr noundef %5)
  %7 = icmp ne i32 %6, 0
  br i1 %7, label %8, label %9

8:                                                ; preds = %1
  store i32 -2, ptr %2, align 4
  br label %28

9:                                                ; preds = %1
  %10 = load ptr, ptr %3, align 8, !tbaa !3
  %11 = getelementptr inbounds nuw %struct.sfparse_parser, ptr %10, i32 0, i32 0
  %12 = load ptr, ptr %11, align 8, !tbaa !17
  %13 = load i8, ptr %12, align 1, !tbaa !18
  %14 = zext i8 %13 to i32
  %15 = icmp ne i32 %14, 44
  br i1 %15, label %16, label %17

16:                                               ; preds = %9
  store i32 -1, ptr %2, align 4
  br label %28

17:                                               ; preds = %9
  %18 = load ptr, ptr %3, align 8, !tbaa !3
  %19 = getelementptr inbounds nuw %struct.sfparse_parser, ptr %18, i32 0, i32 0
  %20 = load ptr, ptr %19, align 8, !tbaa !17
  %21 = getelementptr inbounds nuw i8, ptr %20, i32 1
  store ptr %21, ptr %19, align 8, !tbaa !17
  %22 = load ptr, ptr %3, align 8, !tbaa !3
  call void @parser_discard_ows(ptr noundef %22)
  %23 = load ptr, ptr %3, align 8, !tbaa !3
  %24 = call i32 @parser_eof(ptr noundef %23)
  %25 = icmp ne i32 %24, 0
  br i1 %25, label %26, label %27

26:                                               ; preds = %17
  store i32 -1, ptr %2, align 4
  br label %28

27:                                               ; preds = %17
  store i32 0, ptr %2, align 4
  br label %28

28:                                               ; preds = %27, %26, %16, %8
  %29 = load i32, ptr %2, align 4
  ret i32 %29
}

; Function Attrs: nounwind uwtable
define internal i32 @parser_skip_params(ptr noundef %0) #0 {
  %2 = alloca i32, align 4
  %3 = alloca ptr, align 8
  %4 = alloca i32, align 4
  %5 = alloca i32, align 4
  store ptr %0, ptr %3, align 8, !tbaa !3
  call void @llvm.lifetime.start.p0(i64 4, ptr %4) #5
  br label %6

6:                                                ; preds = %14, %1
  %7 = load ptr, ptr %3, align 8, !tbaa !3
  %8 = call i32 @sfparse_parser_param(ptr noundef %7, ptr noundef null, ptr noundef null)
  store i32 %8, ptr %4, align 4, !tbaa !16
  %9 = load i32, ptr %4, align 4, !tbaa !16
  switch i32 %9, label %13 [
    i32 0, label %14
    i32 -2, label %10
    i32 -1, label %11
  ]

10:                                               ; preds = %6
  store i32 0, ptr %2, align 4
  store i32 1, ptr %5, align 4
  br label %15

11:                                               ; preds = %6
  %12 = load i32, ptr %4, align 4, !tbaa !16
  store i32 %12, ptr %2, align 4
  store i32 1, ptr %5, align 4
  br label %15

13:                                               ; preds = %6
  call void @__assert_fail(ptr noundef @.str, ptr noundef @.str.1, i32 noundef 1280, ptr noundef @__PRETTY_FUNCTION__.parser_skip_params) #6
  unreachable

14:                                               ; preds = %6
  br label %6

15:                                               ; preds = %11, %10
  call void @llvm.lifetime.end.p0(i64 4, ptr %4) #5
  %16 = load i32, ptr %2, align 4
  ret i32 %16
}

; Function Attrs: nounwind uwtable
define internal i32 @parser_skip_inner_list(ptr noundef %0) #0 {
  %2 = alloca i32, align 4
  %3 = alloca ptr, align 8
  %4 = alloca i32, align 4
  %5 = alloca i32, align 4
  store ptr %0, ptr %3, align 8, !tbaa !3
  call void @llvm.lifetime.start.p0(i64 4, ptr %4) #5
  br label %6

6:                                                ; preds = %14, %1
  %7 = load ptr, ptr %3, align 8, !tbaa !3
  %8 = call i32 @sfparse_parser_inner_list(ptr noundef %7, ptr noundef null)
  store i32 %8, ptr %4, align 4, !tbaa !16
  %9 = load i32, ptr %4, align 4, !tbaa !16
  switch i32 %9, label %13 [
    i32 0, label %14
    i32 -2, label %10
    i32 -1, label %11
  ]

10:                                               ; preds = %6
  store i32 0, ptr %2, align 4
  store i32 1, ptr %5, align 4
  br label %15

11:                                               ; preds = %6
  %12 = load i32, ptr %4, align 4, !tbaa !16
  store i32 %12, ptr %2, align 4
  store i32 1, ptr %5, align 4
  br label %15

13:                                               ; preds = %6
  call void @__assert_fail(ptr noundef @.str, ptr noundef @.str.1, i32 noundef 1365, ptr noundef @__PRETTY_FUNCTION__.parser_skip_inner_list) #6
  unreachable

14:                                               ; preds = %6
  br label %6

15:                                               ; preds = %11, %10
  call void @llvm.lifetime.end.p0(i64 4, ptr %4) #5
  %16 = load i32, ptr %2, align 4
  ret i32 %16
}

; Function Attrs: nounwind uwtable
define hidden i32 @sfparse_parser_list(ptr noundef %0, ptr noundef %1) #0 {
  %3 = alloca i32, align 4
  %4 = alloca ptr, align 8
  %5 = alloca ptr, align 8
  %6 = alloca i32, align 4
  %7 = alloca i32, align 4
  store ptr %0, ptr %4, align 8, !tbaa !3
  store ptr %1, ptr %5, align 8, !tbaa !10
  call void @llvm.lifetime.start.p0(i64 4, ptr %6) #5
  %8 = load ptr, ptr %4, align 8, !tbaa !3
  %9 = getelementptr inbounds nuw %struct.sfparse_parser, ptr %8, i32 0, i32 2
  %10 = load i32, ptr %9, align 8, !tbaa !12
  switch i32 %10, label %42 [
    i32 20, label %11
    i32 17, label %19
    i32 19, label %27
    i32 0, label %35
  ]

11:                                               ; preds = %2
  %12 = load ptr, ptr %4, align 8, !tbaa !3
  %13 = call i32 @parser_skip_inner_list(ptr noundef %12)
  store i32 %13, ptr %6, align 4, !tbaa !16
  %14 = load i32, ptr %6, align 4, !tbaa !16
  %15 = icmp ne i32 %14, 0
  br i1 %15, label %16, label %18

16:                                               ; preds = %11
  %17 = load i32, ptr %6, align 4, !tbaa !16
  store i32 %17, ptr %3, align 4
  store i32 1, ptr %7, align 4
  br label %76

18:                                               ; preds = %11
  br label %19

19:                                               ; preds = %2, %18
  %20 = load ptr, ptr %4, align 8, !tbaa !3
  %21 = call i32 @parser_skip_params(ptr noundef %20)
  store i32 %21, ptr %6, align 4, !tbaa !16
  %22 = load i32, ptr %6, align 4, !tbaa !16
  %23 = icmp ne i32 %22, 0
  br i1 %23, label %24, label %26

24:                                               ; preds = %19
  %25 = load i32, ptr %6, align 4, !tbaa !16
  store i32 %25, ptr %3, align 4
  store i32 1, ptr %7, align 4
  br label %76

26:                                               ; preds = %19
  br label %27

27:                                               ; preds = %2, %26
  %28 = load ptr, ptr %4, align 8, !tbaa !3
  %29 = call i32 @parser_next_key_or_item(ptr noundef %28)
  store i32 %29, ptr %6, align 4, !tbaa !16
  %30 = load i32, ptr %6, align 4, !tbaa !16
  %31 = icmp ne i32 %30, 0
  br i1 %31, label %32, label %34

32:                                               ; preds = %27
  %33 = load i32, ptr %6, align 4, !tbaa !16
  store i32 %33, ptr %3, align 4
  store i32 1, ptr %7, align 4
  br label %76

34:                                               ; preds = %27
  br label %43

35:                                               ; preds = %2
  %36 = load ptr, ptr %4, align 8, !tbaa !3
  call void @parser_discard_sp(ptr noundef %36)
  %37 = load ptr, ptr %4, align 8, !tbaa !3
  %38 = call i32 @parser_eof(ptr noundef %37)
  %39 = icmp ne i32 %38, 0
  br i1 %39, label %40, label %41

40:                                               ; preds = %35
  store i32 -2, ptr %3, align 4
  store i32 1, ptr %7, align 4
  br label %76

41:                                               ; preds = %35
  br label %43

42:                                               ; preds = %2
  call void @__assert_fail(ptr noundef @.str, ptr noundef @.str.1, i32 noundef 1518, ptr noundef @__PRETTY_FUNCTION__.sfparse_parser_list) #6
  unreachable

43:                                               ; preds = %41, %34
  %44 = load ptr, ptr %4, align 8, !tbaa !3
  %45 = getelementptr inbounds nuw %struct.sfparse_parser, ptr %44, i32 0, i32 0
  %46 = load ptr, ptr %45, align 8, !tbaa !17
  %47 = load i8, ptr %46, align 1, !tbaa !18
  %48 = zext i8 %47 to i32
  %49 = icmp eq i32 %48, 40
  br i1 %49, label %50, label %65

50:                                               ; preds = %43
  %51 = load ptr, ptr %5, align 8, !tbaa !10
  %52 = icmp ne ptr %51, null
  br i1 %52, label %53, label %58

53:                                               ; preds = %50
  %54 = load ptr, ptr %5, align 8, !tbaa !10
  %55 = getelementptr inbounds nuw %struct.sfparse_value, ptr %54, i32 0, i32 0
  store i32 6, ptr %55, align 8, !tbaa !19
  %56 = load ptr, ptr %5, align 8, !tbaa !10
  %57 = getelementptr inbounds nuw %struct.sfparse_value, ptr %56, i32 0, i32 1
  store i32 0, ptr %57, align 4, !tbaa !21
  br label %58

58:                                               ; preds = %53, %50
  %59 = load ptr, ptr %4, align 8, !tbaa !3
  %60 = getelementptr inbounds nuw %struct.sfparse_parser, ptr %59, i32 0, i32 0
  %61 = load ptr, ptr %60, align 8, !tbaa !17
  %62 = getelementptr inbounds nuw i8, ptr %61, i32 1
  store ptr %62, ptr %60, align 8, !tbaa !17
  %63 = load ptr, ptr %4, align 8, !tbaa !3
  %64 = getelementptr inbounds nuw %struct.sfparse_parser, ptr %63, i32 0, i32 2
  store i32 20, ptr %64, align 8, !tbaa !12
  store i32 0, ptr %3, align 4
  store i32 1, ptr %7, align 4
  br label %76

65:                                               ; preds = %43
  %66 = load ptr, ptr %4, align 8, !tbaa !3
  %67 = load ptr, ptr %5, align 8, !tbaa !10
  %68 = call i32 @parser_bare_item(ptr noundef %66, ptr noundef %67)
  store i32 %68, ptr %6, align 4, !tbaa !16
  %69 = load i32, ptr %6, align 4, !tbaa !16
  %70 = icmp ne i32 %69, 0
  br i1 %70, label %71, label %73

71:                                               ; preds = %65
  %72 = load i32, ptr %6, align 4, !tbaa !16
  store i32 %72, ptr %3, align 4
  store i32 1, ptr %7, align 4
  br label %76

73:                                               ; preds = %65
  %74 = load ptr, ptr %4, align 8, !tbaa !3
  %75 = getelementptr inbounds nuw %struct.sfparse_parser, ptr %74, i32 0, i32 2
  store i32 17, ptr %75, align 8, !tbaa !12
  store i32 0, ptr %3, align 4
  store i32 1, ptr %7, align 4
  br label %76

76:                                               ; preds = %73, %71, %58, %40, %32, %24, %16
  call void @llvm.lifetime.end.p0(i64 4, ptr %6) #5
  %77 = load i32, ptr %3, align 4
  ret i32 %77
}