; Function Attrs: nounwind uwtable
define hidden range(i32 -2, 1) i32 @sfparse_parser_list(ptr noundef captures(none) %0, ptr noundef %1) local_unnamed_addr #0 {
  %3 = getelementptr inbounds nuw i8, ptr %0, i64 16
  %4 = load i32, ptr %3, align 8, !tbaa !3
  switch i32 %4, label %24 [
    i32 20, label %.preheader
    i32 17, label %parser_skip_inner_list.exit.thread.preheader
    i32 19, label %parser_skip_params.exit.thread
    i32 0, label %18
  ]

parser_skip_inner_list.exit.thread.preheader:     ; preds = %.preheader, %2
  br label %parser_skip_inner_list.exit.thread

.preheader:                                       ; preds = %2, %.preheader
  %5 = tail call i32 @sfparse_parser_inner_list(ptr noundef nonnull %0, ptr noundef null)
  switch i32 %5, label %default.unreachable [
    i32 0, label %.preheader
    i32 -2, label %parser_skip_inner_list.exit.thread.preheader
    i32 -1, label %parser_skip_inner_list.exit
  ]

default.unreachable:                              ; preds = %.preheader, %parser_skip_inner_list.exit.thread
  unreachable

parser_skip_inner_list.exit.thread:               ; preds = %parser_skip_inner_list.exit.thread.preheader, %parser_skip_inner_list.exit.thread
  %6 = tail call i32 @sfparse_parser_param(ptr noundef nonnull %0, ptr noundef null, ptr noundef null)
  switch i32 %6, label %default.unreachable [
    i32 0, label %parser_skip_inner_list.exit.thread
    i32 -2, label %parser_skip_params.exit.thread
    i32 -1, label %parser_skip_inner_list.exit
  ]

parser_skip_params.exit.thread:                   ; preds = %parser_skip_inner_list.exit.thread, %2
  %7 = getelementptr i8, ptr %0, i64 8
  %.val4.i.i = load ptr, ptr %7, align 8, !tbaa !11
  %.promoted.i.i = load ptr, ptr %0, align 8, !tbaa !10
  %.not6.i.i = icmp eq ptr %.promoted.i.i, %.val4.i.i
  br i1 %.not6.i.i, label %parser_discard_ows.exit.i, label %.lr.ph.i.i

.lr.ph.i.i:                                       ; preds = %parser_skip_params.exit.thread, %9
  %.val57.i.i = phi ptr [ %10, %9 ], [ %.promoted.i.i, %parser_skip_params.exit.thread ]
  %8 = load i8, ptr %.val57.i.i, align 1, !tbaa !12
  switch i8 %8, label %parser_discard_ows.exit.i [
    i8 32, label %9
    i8 9, label %9
  ]

9:                                                ; preds = %.lr.ph.i.i, %.lr.ph.i.i
  %10 = getelementptr inbounds nuw i8, ptr %.val57.i.i, i64 1
  store ptr %10, ptr %0, align 8, !tbaa !10
  %.not.i.i = icmp eq ptr %10, %.val4.i.i
  br i1 %.not.i.i, label %parser_discard_ows.exit.i, label %.lr.ph.i.i, !llvm.loop !24

parser_discard_ows.exit.i:                        ; preds = %9, %.lr.ph.i.i, %parser_skip_params.exit.thread
  %.val9.i = phi ptr [ %.promoted.i.i, %parser_skip_params.exit.thread ], [ %10, %9 ], [ %.val57.i.i, %.lr.ph.i.i ]
  %.not.i = icmp eq ptr %.val9.i, %.val4.i.i
  br i1 %.not.i, label %parser_skip_inner_list.exit, label %11

11:                                               ; preds = %parser_discard_ows.exit.i
  %12 = load i8, ptr %.val9.i, align 1, !tbaa !12
  %.not6.i = icmp eq i8 %12, 44
  br i1 %.not6.i, label %13, label %parser_skip_inner_list.exit

13:                                               ; preds = %11
  %14 = getelementptr inbounds nuw i8, ptr %.val9.i, i64 1
  store ptr %14, ptr %0, align 8, !tbaa !10
  %.not6.i13.i = icmp eq ptr %14, %.val4.i.i
  br i1 %.not6.i13.i, label %parser_skip_inner_list.exit, label %.lr.ph.i14.i

.lr.ph.i14.i:                                     ; preds = %13, %16
  %.val57.i15.i = phi ptr [ %17, %16 ], [ %14, %13 ]
  %15 = load i8, ptr %.val57.i15.i, align 1, !tbaa !12
  switch i8 %15, label %parser_next_key_or_item.exit [
    i8 32, label %16
    i8 9, label %16
  ]

16:                                               ; preds = %.lr.ph.i14.i, %.lr.ph.i14.i
  %17 = getelementptr inbounds nuw i8, ptr %.val57.i15.i, i64 1
  store ptr %17, ptr %0, align 8, !tbaa !10
  %.not.i16.i = icmp eq ptr %17, %.val4.i.i
  br i1 %.not.i16.i, label %parser_skip_inner_list.exit, label %.lr.ph.i14.i, !llvm.loop !24

parser_next_key_or_item.exit:                     ; preds = %.lr.ph.i14.i
  %.not18.i.not = icmp eq ptr %.val57.i15.i, %.val4.i.i
  br i1 %.not18.i.not, label %parser_skip_inner_list.exit, label %25

18:                                               ; preds = %2
  %19 = getelementptr i8, ptr %0, i64 8
  %.val3.i = load ptr, ptr %19, align 8, !tbaa !11
  %.promoted.i = load ptr, ptr %0, align 8, !tbaa !10
  %.not5.i = icmp eq ptr %.promoted.i, %.val3.i
  br i1 %.not5.i, label %parser_discard_sp.exit, label %.lr.ph.i

.lr.ph.i:                                         ; preds = %18, %22
  %.val46.i = phi ptr [ %23, %22 ], [ %.promoted.i, %18 ]
  %20 = load i8, ptr %.val46.i, align 1, !tbaa !12
  %21 = icmp eq i8 %20, 32
  br i1 %21, label %22, label %parser_discard_sp.exit

22:                                               ; preds = %.lr.ph.i
  %23 = getelementptr inbounds nuw i8, ptr %.val46.i, i64 1
  store ptr %23, ptr %0, align 8, !tbaa !10
  %.not.i38 = icmp eq ptr %23, %.val3.i
  br i1 %.not.i38, label %parser_discard_sp.exit, label %.lr.ph.i, !llvm.loop !13

parser_discard_sp.exit:                           ; preds = %.lr.ph.i, %22, %18
  %.val = phi ptr [ %.promoted.i, %18 ], [ %.val46.i, %.lr.ph.i ], [ %23, %22 ]
  %.not = icmp eq ptr %.val, %.val3.i
  br i1 %.not, label %parser_skip_inner_list.exit, label %parser_discard_sp.exit._crit_edge

parser_discard_sp.exit._crit_edge:                ; preds = %parser_discard_sp.exit
  %.pre = load i8, ptr %.val, align 1, !tbaa !12
  br label %25

24:                                               ; preds = %2
  tail call void @__assert_fail(ptr noundef nonnull @.str, ptr noundef nonnull @.str.1, i32 noundef 1518, ptr noundef nonnull @__PRETTY_FUNCTION__.sfparse_parser_list) #8
  unreachable

25:                                               ; preds = %parser_discard_sp.exit._crit_edge, %parser_next_key_or_item.exit
  %26 = phi i8 [ %.pre, %parser_discard_sp.exit._crit_edge ], [ %15, %parser_next_key_or_item.exit ]
  %27 = phi ptr [ %.val, %parser_discard_sp.exit._crit_edge ], [ %.val57.i15.i, %parser_next_key_or_item.exit ]
  %28 = icmp eq i8 %26, 40
  br i1 %28, label %29, label %34

29:                                               ; preds = %25
  %.not32 = icmp eq ptr %1, null
  br i1 %.not32, label %32, label %30

30:                                               ; preds = %29
  store i32 6, ptr %1, align 8, !tbaa !15
  %31 = getelementptr inbounds nuw i8, ptr %1, i64 4
  store i32 0, ptr %31, align 4, !tbaa !17
  br label %32

32:                                               ; preds = %30, %29
  %33 = getelementptr inbounds nuw i8, ptr %27, i64 1
  store ptr %33, ptr %0, align 8, !tbaa !10
  br label %parser_skip_inner_list.exit.sink.split

34:                                               ; preds = %25
  %35 = tail call fastcc i32 @parser_bare_item(ptr noundef nonnull %0, ptr noundef %1)
  %.not31 = icmp eq i32 %35, 0
  br i1 %.not31, label %parser_skip_inner_list.exit.sink.split, label %parser_skip_inner_list.exit

parser_skip_inner_list.exit.sink.split:           ; preds = %34, %32
  %.sink = phi i32 [ 20, %32 ], [ 17, %34 ]
  store i32 %.sink, ptr %3, align 8, !tbaa !3
  br label %parser_skip_inner_list.exit

parser_skip_inner_list.exit:                      ; preds = %.preheader, %parser_skip_inner_list.exit.thread, %16, %parser_skip_inner_list.exit.sink.split, %13, %11, %parser_discard_ows.exit.i, %34, %parser_discard_sp.exit, %parser_next_key_or_item.exit
  %.0 = phi i32 [ -1, %parser_next_key_or_item.exit ], [ -2, %parser_discard_sp.exit ], [ -1, %34 ], [ -1, %11 ], [ -2, %parser_discard_ows.exit.i ], [ -1, %13 ], [ 0, %parser_skip_inner_list.exit.sink.split ], [ -1, %16 ], [ %6, %parser_skip_inner_list.exit.thread ], [ %5, %.preheader ]
  ret i32 %.0
}